target datalayout = "e-m:e-p270:32:32-p271:32:32-p272:64:64-i64:64-i128:128-f80:128-n8:16:32:64-S128"
target triple = "x86_64-pc-linux-gnu"

@hf_swils_mrra_rev = internal global i32 0, align 4
@hf_swils_mrra_size = internal global i32 0, align 4
@hf_swils_mrra_vendorid = internal global i32 0, align 4
@hf_swils_mrra_vendorinfo = internal global i32 0, align 4
@hf_swils_mrra_reply = internal global i32 0, align 4
@hf_swils_mrra_reply_size = internal global i32 0, align 4
@hf_swils_mrra_waittime = internal global i32 0, align 4

; Function Attrs: nounwind uwtable
define internal void @dissect_swils_mrra(ptr noundef %0, ptr noundef %1, ptr noundef %2, i8 noundef zeroext %3) #0 {
  %5 = alloca ptr, align 8
  %6 = alloca ptr, align 8
  %7 = alloca ptr, align 8
  %8 = alloca i8, align 1
  %9 = alloca i32, align 4
  store ptr %0, ptr %5, align 8
  store ptr %1, ptr %6, align 8
  store ptr %2, ptr %7, align 8
  store i8 %3, ptr %8, align 1
  store i32 0, ptr %9, align 4
  %10 = load ptr, ptr %7, align 8
  %11 = icmp ne ptr %10, null
  br i1 %11, label %13, label %12

12:                                               ; preds = %4
  br label %66

13:                                               ; preds = %4
  %14 = load i8, ptr %8, align 1
  %15 = icmp ne i8 %14, 0
  br i1 %15, label %16, label %41

16:                                               ; preds = %13
  %17 = load ptr, ptr %7, align 8
  %18 = load i32, ptr @hf_swils_mrra_rev, align 4
  %19 = load ptr, ptr %5, align 8
  %20 = load i32, ptr %9, align 4
  %21 = add i32 %20, 4
  %22 = call ptr @proto_tree_add_item(ptr noundef %17, i32 noundef %18, ptr noundef %19, i32 noundef %21, i32 noundef 4, i32 noundef 0)
  %23 = load ptr, ptr %7, align 8
  %24 = load i32, ptr @hf_swils_mrra_size, align 4
  %25 = load ptr, ptr %5, align 8
  %26 = load i32, ptr %9, align 4
  %27 = add i32 %26, 8
  %28 = call ptr @proto_tree_add_item(ptr noundef %23, i32 noundef %24, ptr noundef %25, i32 noundef %27, i32 noundef 4, i32 noundef 0)
  %29 = load ptr, ptr %7, align 8
  %30 = load i32, ptr @hf_swils_mrra_vendorid, align 4
  %31 = load ptr, ptr %5, align 8
  %32 = load i32, ptr %9, align 4
  %33 = add i32 %32, 12
  %34 = call ptr @proto_tree_add_item(ptr noundef %29, i32 noundef %30, ptr noundef %31, i32 noundef %33, i32 noundef 8, i32 noundef 0)
  %35 = load ptr, ptr %7, align 8
  %36 = load i32, ptr @hf_swils_mrra_vendorinfo, align 4
  %37 = load ptr, ptr %5, align 8
  %38 = load i32, ptr %9, align 4
  %39 = add i32 %38, 20
  %40 = call ptr @proto_tree_add_item(ptr noundef %35, i32 noundef %36, ptr noundef %37, i32 noundef %39, i32 noundef 8, i32 noundef 0)
  br label %66

41:                                               ; preds = %13
  %42 = load ptr, ptr %7, align 8
  %43 = load i32, ptr @hf_swils_mrra_vendorid, align 4
  %44 = load ptr, ptr %5, align 8
  %45 = load i32, ptr %9, align 4
  %46 = add i32 %45, 4
  %47 = call ptr @proto_tree_add_item(ptr noundef %42, i32 noundef %43, ptr noundef %44, i32 noundef %46, i32 noundef 8, i32 noundef 0)
  %48 = load ptr, ptr %7, align 8
  %49 = load i32, ptr @hf_swils_mrra_reply, align 4
  %50 = load ptr, ptr %5, align 8
  %51 = load i32, ptr %9, align 4
  %52 = add i32 %51, 12
  %53 = call ptr @proto_tree_add_item(ptr noundef %48, i32 noundef %49, ptr noundef %50, i32 noundef %52, i32 noundef 4, i32 noundef 0)
  %54 = load ptr, ptr %7, align 8
  %55 = load i32, ptr @hf_swils_mrra_reply_size, align 4
  %56 = load ptr, ptr %5, align 8
  %57 = load i32, ptr %9, align 4
  %58 = add i32 %57, 16
  %59 = call ptr @proto_tree_add_item(ptr noundef %54, i32 noundef %55, ptr noundef %56, i32 noundef %58, i32 noundef 4, i32 noundef 0)
  %60 = load ptr, ptr %7, align 8
  %61 = load i32, ptr @hf_swils_mrra_waittime, align 4
  %62 = load ptr, ptr %5, align 8
  %63 = load i32, ptr %9, align 4
  %64 = add i32 %63, 20
  %65 = call ptr @proto_tree_add_item(ptr noundef %60, i32 noundef %61, ptr noundef %62, i32 noundef %64, i32 noundef 4, i32 noundef 0)
  br label %66

66:                                               ; preds = %41, %16, %12
  ret void
}