; Function Attrs: nounwind uwtable
define internal void @dissect_swils_mrra(ptr noundef %0, ptr readnone captures(none) %1, ptr noundef %2, i8 noundef zeroext %3) #0 {
  %.not = icmp eq ptr %2, null
  br i1 %.not, label %22, label %5

5:                                                ; preds = %4
  %.not25 = icmp eq i8 %3, 0
  br i1 %.not25, label %13, label %6

6:                                                ; preds = %5
  %7 = load i32, ptr @hf_swils_mrra_rev, align 4
  %8 = tail call ptr @proto_tree_add_item(ptr noundef nonnull %2, i32 noundef %7, ptr noundef %0, i32 noundef 4, i32 noundef 4, i32 noundef 0) #7
  %9 = load i32, ptr @hf_swils_mrra_size, align 4
  %10 = tail call ptr @proto_tree_add_item(ptr noundef nonnull %2, i32 noundef %9, ptr noundef %0, i32 noundef 8, i32 noundef 4, i32 noundef 0) #7
  %11 = load i32, ptr @hf_swils_mrra_vendorid, align 4
  %12 = tail call ptr @proto_tree_add_item(ptr noundef nonnull %2, i32 noundef %11, ptr noundef %0, i32 noundef 12, i32 noundef 8, i32 noundef 0) #7
  br label %.sink.split

13:                                               ; preds = %5
  %14 = load i32, ptr @hf_swils_mrra_vendorid, align 4
  %15 = tail call ptr @proto_tree_add_item(ptr noundef nonnull %2, i32 noundef %14, ptr noundef %0, i32 noundef 4, i32 noundef 8, i32 noundef 0) #7
  %16 = load i32, ptr @hf_swils_mrra_reply, align 4
  %17 = tail call ptr @proto_tree_add_item(ptr noundef nonnull %2, i32 noundef %16, ptr noundef %0, i32 noundef 12, i32 noundef 4, i32 noundef 0) #7
  %18 = load i32, ptr @hf_swils_mrra_reply_size, align 4
  %19 = tail call ptr @proto_tree_add_item(ptr noundef nonnull %2, i32 noundef %18, ptr noundef %0, i32 noundef 16, i32 noundef 4, i32 noundef 0) #7
  br label %.sink.split

.sink.split:                                      ; preds = %6, %13
  %hf_swils_mrra_waittime.sink = phi ptr [ @hf_swils_mrra_waittime, %13 ], [ @hf_swils_mrra_vendorinfo, %6 ]
  %.sink26 = phi i32 [ 4, %13 ], [ 8, %6 ]
  %20 = load i32, ptr %hf_swils_mrra_waittime.sink, align 4
  %21 = tail call ptr @proto_tree_add_item(ptr noundef nonnull %2, i32 noundef %20, ptr noundef %0, i32 noundef 20, i32 noundef %.sink26, i32 noundef 0) #7
  br label %22

22:                                               ; preds = %.sink.split, %4
  ret void
}